(iwebcorpus
WebCorpus
p0
(dp1
S'ranks'
p2
(dp3
Vhttp://udacity.com/cs101x/urank/kathleen.html
p4
F0.11661866666666663
sVhttp://udacity.com/cs101x/urank/zinc.html
p5
F0.038666666666666655
sVhttp://udacity.com/cs101x/urank/hummus.html
p6
F0.038666666666666655
sVhttp://udacity.com/cs101x/urank/arsenic.html
p7
F0.05413333333333332
sS'http://udacity.com/cs101x/urank/index.html'
p8
F0.033333333333333326
sVhttp://udacity.com/cs101x/urank/nickel.html
p9
F0.09743999999999997
ssS'index'
p10
(dp11
S'<body>'
p12
(lp13
g8
ag4
ag7
ag5
ag9
ag6
asS'Chef</a>'
p14
(lp15
g8
asS'<html>'
p16
(lp17
g8
ag4
ag7
ag5
ag9
ag6
asS'Here'
p18
(lp19
g8
asS'tablesppons'
p20
(lp21
g4
asS'to'
p22
(lp23
g4
ag7
ag6
asS'garbonzo'
p24
(lp25
g4
asS'World'
p26
(lp27
g7
asS'Recipe</a>'
p28
(lp29
g8
ag8
asS'it.'
p30
(lp31
g6
asS'them'
p32
(lp33
g4
asS'</html>'
p34
(lp35
g8
ag4
ag7
ag5
ag9
ag6
asS'Hummus'
p36
(lp37
g8
ag4
ag7
ag9
ag6
asS'know'
p38
(lp39
g5
asS'buttercream'
p40
(lp41
g4
asS'recipe!'
p42
(lp43
g9
asS'Recipe'
p44
(lp45
g4
ag7
ag6
asS'blender.'
p46
(lp47
g4
asS'try'
p48
(lp49
g5
asS'<p>'
p50
(lp51
g8
ag4
ag7
ag5
ag5
ag9
ag6
asS'Go'
p52
(lp53
g6
asS'</ul>'
p54
(lp55
g8
asS'opinions,'
p56
(lp57
g8
asS'href="http://udacity.com/cs101x/urank/zinc.html">Zinc'
p58
(lp59
g8
asS'For'
p60
(lp61
g8
ag5
asS'hummus.'
p62
(lp63
g6
asS'hummus,'
p64
(lp65
g5
asS'are'
p66
(lp67
g8
asS'href="http://udacity.com/cs101x/urank/arsenic.html">this'
p68
(lp69
g5
asS'best'
p70
(lp71
g9
asS'out'
p72
(lp73
g8
asS'Nickel'
p74
(lp75
g5
ag9
asS'expert'
p76
(lp77
g8
asS'everything'
p78
(lp79
g5
asS'3'
p80
(lp81
g4
asS'Hummus</a>'
p82
(lp83
g8
asS'</body>'
p84
(lp85
g8
ag4
ag7
ag5
ag9
ag6
asS'learned'
p86
(lp87
g5
asS'sauce.'
p88
(lp89
g4
asS'This'
p90
(lp91
g9
asS'Chef</h1>'
p92
(lp93
g5
ag9
asS'Algorithms</h1>'
p94
(lp95
g8
asS'from'
p96
(lp97
g5
asS'frosting'
p98
(lp99
g4
asS'great'
p100
(lp101
g5
asS'Chef</a>.'
p102
(lp103
g8
ag7
ag5
asS'favorite'
p104
(lp105
g8
asS'hummus'
p106
(lp107
g7
asS'</h1>'
p108
(lp109
g4
ag7
ag6
asS'href="http://udacity.com/cs101x/urank/nickel.html">the'
p110
(lp111
g5
asS'</ol>'
p112
(lp113
g4
ag7
ag6
asS'Arsenic'
p114
(lp115
g7
asS'Best'
p116
(lp117
g8
asS'lemon.'
p118
(lp119
g4
asS'one'
p120
(lp121
g4
asS'Add'
p122
(lp123
g4
ag4
asS'<h1>'
p124
(lp125
g4
ag7
ag6
asS'</p>'
p126
(lp127
g5
asS'href="http://udacity.com/cs101x/urank/kathleen.html">Kathleen\'s'
p128
(lp129
g8
asS'her'
p130
(lp131
g7
asS"<h1>Dave's"
p132
(lp133
g8
asS'href="http://udacity.com/cs101x/urank/kathleen.html">'
p134
(lp135
g9
asS'recipies:'
p136
(lp137
g8
asS'<h1>The'
p138
(lp139
g5
ag9
asS'href="http://udacity.com/cs101x/urank/arsenic.html">World\'s'
p140
(lp141
g8
asS'beans.'
p142
(lp143
g4
asS'store'
p144
(lp145
g6
asS'more'
p146
(lp147
g8
asS'you.'
p148
(lp149
g7
asS'href="http://udacity.com/cs101x/urank/hummus.html">Hummus'
p150
(lp151
g8
asS'buy'
p152
(lp153
g6
asS'Squeeze'
p154
(lp155
g4
asS'Force'
p156
(lp157
g7
asS'pepper,'
p158
(lp159
g4
asS'can'
p160
(lp161
g4
asS'Zinc'
p162
(lp163
g5
asS'of'
p164
(lp165
g4
ag4
ag6
asS'Open'
p166
(lp167
g4
ag6
asS'and'
p168
(lp169
g8
ag4
ag6
asS'is'
p170
(lp171
g9
asS'Cooking'
p172
(lp173
g8
asS'Crush'
p174
(lp175
g4
asS'container'
p176
(lp177
g6
asS'in'
p178
(lp179
g4
ag4
asS'my'
p180
(lp181
g8
asS'check'
p182
(lp183
g8
asS'make'
p184
(lp185
g7
asS'Famous'
p186
(lp187
g7
asS'<ul>'
p188
(lp189
g8
asS'salt,'
p190
(lp191
g4
asS"Chef's"
p192
(lp193
g7
asS'I'
p194
(lp195
g5
ag5
asS"Kathleen's"
p196
(lp197
g4
asS'<ol>'
p198
(lp199
g4
ag7
ag6
asS'taste.'
p200
(lp201
g4
asS'href="http://udacity.com/cs101x/urank/nickel.html">Nickel'
p202
(lp203
g8
ag7
asS'<a'
p204
(lp205
g8
ag8
ag8
ag8
ag8
ag7
ag5
ag5
ag9
asS'<li>'
p206
(lp207
g8
ag8
ag8
ag4
ag4
ag4
ag4
ag4
ag7
ag7
ag6
ag6
asS'The'
p208
(lp209
g7
asS'a'
p210
(lp211
g4
ag4
ag6
asS'for'
p212
(lp213
g7
asS'</a>'
p214
(lp215
g9
asS'tahini'
p216
(lp217
g4
asS'the'
p218
(lp219
g8
ag7
ag9
ag6
asS'Kidnap'
p220
(lp221
g7
asS'recipe</a>.'
p222
(lp223
g5
assS'graph'
p224
(igraph
Graph
p225
(dp226
S'_nodes'
p227
(dp228
g4
c__builtin__
set
p229
((lp230
tp231
Rp232
sg5
g229
((lp233
Vhttp://udacity.com/cs101x/urank/arsenic.html
p234
aVhttp://udacity.com/cs101x/urank/nickel.html
p235
atp236
Rp237
sg6
g229
((lp238
tp239
Rp240
sg7
g229
((lp241
Vhttp://udacity.com/cs101x/urank/nickel.html
p242
atp243
Rp244
sg8
g229
((lp245
g6
ag4
ag7
ag5
ag9
atp246
Rp247
sg9
g229
((lp248
Vhttp://udacity.com/cs101x/urank/kathleen.html
p249
atp250
Rp251
ssbsb.